; Function Attrs: nounwind uwtable
define dso_local noundef ptr @makeConst(i32 noundef %0, i32 noundef %1, i32 noundef %2, i32 noundef %3, i64 noundef %4, i1 noundef zeroext %5, i1 noundef zeroext %6) local_unnamed_addr #0 {
  %8 = tail call noundef ptr @palloc0(i64 noundef 40) #7
  store i32 7, ptr %8, align 4
  %9 = icmp ne i32 %3, -1
  %or.cond.not = or i1 %9, %5
  br i1 %or.cond.not, label %14, label %10

10:                                               ; preds = %7
  %11 = inttoptr i64 %4 to ptr
  %12 = tail call ptr @pg_detoast_datum(ptr noundef %11) #7
  %13 = ptrtoint ptr %12 to i64
  br label %14

14:                                               ; preds = %10, %7
  %.0 = phi i64 [ %13, %10 ], [ %4, %7 ]
  %15 = zext i1 %6 to i8
  %16 = zext i1 %5 to i8
  %17 = getelementptr inbounds nuw i8, ptr %8, i64 4
  store i32 %0, ptr %17, align 4
  %18 = getelementptr inbounds nuw i8, ptr %8, i64 8
  store i32 %1, ptr %18, align 8
  %19 = getelementptr inbounds nuw i8, ptr %8, i64 12
  store i32 %2, ptr %19, align 4
  %20 = getelementptr inbounds nuw i8, ptr %8, i64 16
  store i32 %3, ptr %20, align 8
  %21 = getelementptr inbounds nuw i8, ptr %8, i64 24
  store i64 %.0, ptr %21, align 8
  %22 = getelementptr inbounds nuw i8, ptr %8, i64 32
  store i8 %16, ptr %22, align 8
  %23 = getelementptr inbounds nuw i8, ptr %8, i64 33
  store i8 %15, ptr %23, align 1
  %24 = getelementptr inbounds nuw i8, ptr %8, i64 36
  store i32 -1, ptr %24, align 4
  ret ptr %8
}